target datalayout = "e-m:e-p270:32:32-p271:32:32-p272:64:64-i64:64-i128:128-f80:128-n8:16:32:64-S128"
target triple = "x86_64-pc-linux-gnu"

%struct._php_basic_globals = type { ptr, %struct._zend_array, ptr, ptr, i8, ptr, [256 x i8], i64, %struct._zend_fcall_info, %struct._zend_fcall_info_cache, ptr, %struct._zval_struct, %struct._zval_struct, i64, i64, i64, i64, ptr, ptr, %struct._php_stream_statbuf, %struct._php_stream_statbuf, ptr, i32, %struct.anon.7, %struct.anon.8, %struct.url_adapt_state_ex_t, %struct._zend_array, %struct.url_adapt_state_ex_t, %struct._zend_array, ptr, i32, i64 }
%struct._zend_fcall_info = type { i64, %struct._zval_struct, ptr, ptr, ptr, i32, ptr }
%struct._zend_fcall_info_cache = type { ptr, ptr, ptr, ptr, ptr }
%struct._zval_struct = type { %union._zend_value, %union.anon.3, %union.anon.6 }
%union._zend_value = type { i64 }
%union.anon.3 = type { i32 }
%union.anon.6 = type { i32 }
%struct._php_stream_statbuf = type { %struct.stat }
%struct.stat = type { i64, i64, i64, i32, i32, i32, i32, i64, i64, i64, i64, %struct.timespec, %struct.timespec, %struct.timespec, [3 x i64] }
%struct.timespec = type { i64, i64 }
%struct.anon.7 = type { ptr, i32 }
%struct.anon.8 = type { ptr, i32 }
%struct.url_adapt_state_ex_t = type { %struct.smart_str, %struct.smart_str, %struct.smart_str, %struct.smart_str, %struct.smart_str, %struct.smart_str, %struct.smart_str, i32, ptr, i32, i32, %struct.smart_str, i32, i32, ptr }
%struct.smart_str = type { ptr, i64 }
%struct._zend_array = type { %struct._zend_refcounted_h, %union.anon.0, i32, %union.anon.1, i32, i32, i32, i32, i64, ptr }
%struct._zend_refcounted_h = type { i32, %union.anon }
%union.anon = type { i32 }
%union.anon.0 = type { i32 }
%union.anon.1 = type { ptr }
%struct._zend_execute_data = type { ptr, ptr, ptr, ptr, %struct._zval_struct, ptr, ptr, ptr, ptr }
%struct._user_tick_function_entry = type { %struct._zend_fcall_info, %struct._zend_fcall_info_cache, i8 }

@basic_globals = global %struct._php_basic_globals zeroinitializer, align 8

; Function Attrs: nounwind uwtable
define hidden void @zif_unregister_tick_function(ptr noundef %0, ptr noundef %1) #0 {
  %3 = alloca ptr, align 8
  %4 = alloca i1, align 1
  %5 = alloca ptr, align 8
  %6 = alloca ptr, align 8
  %7 = alloca ptr, align 8
  %8 = alloca i8, align 1
  %9 = alloca ptr, align 8
  %10 = alloca i8, align 1
  %11 = alloca ptr, align 8
  %12 = alloca ptr, align 8
  %13 = alloca %struct._user_tick_function_entry, align 8
  %14 = alloca i32, align 4
  %15 = alloca i32, align 4
  %16 = alloca i32, align 4
  %17 = alloca i32, align 4
  %18 = alloca i32, align 4
  %19 = alloca ptr, align 8
  %20 = alloca ptr, align 8
  %21 = alloca i32, align 4
  %22 = alloca ptr, align 8
  %23 = alloca i8, align 1
  %24 = alloca i8, align 1
  %25 = alloca i32, align 4
  store ptr %0, ptr %11, align 8
  store ptr %1, ptr %12, align 8
  br label %26

26:                                               ; preds = %2
  store i32 0, ptr %14, align 4
  store i32 1, ptr %15, align 4
  store i32 1, ptr %16, align 4
  %27 = load ptr, ptr %11, align 8
  %28 = getelementptr inbounds %struct._zend_execute_data, ptr %27, i32 0, i32 4
  %29 = getelementptr inbounds %struct._zval_struct, ptr %28, i32 0, i32 2
  %30 = load i32, ptr %29, align 4
  store i32 %30, ptr %17, align 4
  store i32 0, ptr %18, align 4
  store ptr null, ptr %20, align 8
  store i32 0, ptr %21, align 4
  store ptr null, ptr %22, align 8
  store i8 0, ptr %23, align 1
  store i8 0, ptr %24, align 1
  store i32 0, ptr %25, align 4
  br label %31

31:                                               ; preds = %26
  %32 = load i32, ptr %17, align 4
  %33 = load i32, ptr %15, align 4
  %34 = icmp ult i32 %32, %33
  %35 = xor i1 %34, true
  %36 = xor i1 %35, true
  %37 = zext i1 %36 to i32
  %38 = sext i32 %37 to i64
  %39 = icmp ne i64 %38, 0
  br i1 %39, label %49, label %40

40:                                               ; preds = %31
  %41 = load i32, ptr %17, align 4
  %42 = load i32, ptr %16, align 4
  %43 = icmp ugt i32 %41, %42
  %44 = xor i1 %43, true
  %45 = xor i1 %44, true
  %46 = zext i1 %45 to i32
  %47 = sext i32 %46 to i64
  %48 = icmp ne i64 %47, 0
  br i1 %48, label %49, label %52

49:                                               ; preds = %40, %31
  %50 = load i32, ptr %15, align 4
  %51 = load i32, ptr %16, align 4
  call void @zend_wrong_parameters_count_error(i32 noundef %50, i32 noundef %51)
  store i32 1, ptr %25, align 4
  br label %148

52:                                               ; preds = %40
  %53 = load ptr, ptr %11, align 8
  %54 = getelementptr inbounds %struct._zval_struct, ptr %53, i64 4
  store ptr %54, ptr %19, align 8
  %55 = load i32, ptr %18, align 4
  %56 = add i32 %55, 1
  store i32 %56, ptr %18, align 4
  %57 = load i32, ptr %18, align 4
  %58 = load i32, ptr %15, align 4
  %59 = icmp ule i32 %57, %58
  br i1 %59, label %65, label %60

60:                                               ; preds = %52
  %61 = load i8, ptr %24, align 1
  %62 = trunc i8 %61 to i1
  %63 = zext i1 %62 to i32
  %64 = icmp eq i32 %63, 1
  br label %65

65:                                               ; preds = %60, %52
  %66 = phi i1 [ true, %52 ], [ %64, %60 ]
  call void @llvm.assume(i1 %66)
  %67 = load i32, ptr %18, align 4
  %68 = load i32, ptr %15, align 4
  %69 = icmp ugt i32 %67, %68
  br i1 %69, label %75, label %70

70:                                               ; preds = %65
  %71 = load i8, ptr %24, align 1
  %72 = trunc i8 %71 to i1
  %73 = zext i1 %72 to i32
  %74 = icmp eq i32 %73, 0
  br label %75

75:                                               ; preds = %70, %65
  %76 = phi i1 [ true, %65 ], [ %74, %70 ]
  call void @llvm.assume(i1 %76)
  %77 = load i8, ptr %24, align 1
  %78 = trunc i8 %77 to i1
  br i1 %78, label %79, label %90

79:                                               ; preds = %75
  %80 = load i32, ptr %18, align 4
  %81 = load i32, ptr %17, align 4
  %82 = icmp ugt i32 %80, %81
  %83 = xor i1 %82, true
  %84 = xor i1 %83, true
  %85 = zext i1 %84 to i32
  %86 = sext i32 %85 to i64
  %87 = icmp ne i64 %86, 0
  br i1 %87, label %88, label %89

88:                                               ; preds = %79
  br label %148

89:                                               ; preds = %79
  br label %90

90:                                               ; preds = %89, %75
  %91 = load ptr, ptr %19, align 8
  %92 = getelementptr inbounds %struct._zval_struct, ptr %91, i32 1
  store ptr %92, ptr %19, align 8
  %93 = load ptr, ptr %19, align 8
  store ptr %93, ptr %20, align 8
  %94 = load ptr, ptr %20, align 8
  %95 = getelementptr inbounds %struct._user_tick_function_entry, ptr %13, i32 0, i32 0
  %96 = getelementptr inbounds %struct._user_tick_function_entry, ptr %13, i32 0, i32 1
  store ptr %94, ptr %5, align 8
  store ptr %95, ptr %6, align 8
  store ptr %96, ptr %7, align 8
  store i8 0, ptr %8, align 1
  store ptr %22, ptr %9, align 8
  store i8 1, ptr %10, align 1
  %97 = load i8, ptr %8, align 1
  %98 = trunc i8 %97 to i1
  br i1 %98, label %99, label %110

99:                                               ; preds = %90
  %100 = load ptr, ptr %5, align 8
  store ptr %100, ptr %3, align 8
  %101 = load ptr, ptr %3, align 8
  %102 = getelementptr inbounds %struct._zval_struct, ptr %101, i32 0, i32 1
  %103 = load i8, ptr %102, align 8
  %104 = zext i8 %103 to i32
  %105 = icmp eq i32 %104, 1
  br i1 %105, label %106, label %110

106:                                              ; preds = %99
  %107 = load ptr, ptr %6, align 8
  store i64 0, ptr %107, align 8
  %108 = load ptr, ptr %7, align 8
  store ptr null, ptr %108, align 8
  %109 = load ptr, ptr %9, align 8
  store ptr null, ptr %109, align 8
  br label %119

110:                                              ; preds = %99, %90
  %111 = load ptr, ptr %5, align 8
  %112 = load ptr, ptr %6, align 8
  %113 = load ptr, ptr %7, align 8
  %114 = load ptr, ptr %9, align 8
  %115 = call i32 @zend_fcall_info_init(ptr noundef %111, i32 noundef 0, ptr noundef %112, ptr noundef %113, ptr noundef null, ptr noundef %114) #12
  %116 = icmp ne i32 %115, 0
  br i1 %116, label %117, label %118

117:                                              ; preds = %110
  store i1 false, ptr %4, align 1
  br label %125

118:                                              ; preds = %110
  br label %119

119:                                              ; preds = %118, %106
  %120 = load i8, ptr %10, align 1
  %121 = trunc i8 %120 to i1
  br i1 %121, label %122, label %124

122:                                              ; preds = %119
  %123 = load ptr, ptr %7, align 8
  call void @zend_release_fcall_info_cache(ptr noundef %123) #12
  br label %124

124:                                              ; preds = %122, %119
  store i1 true, ptr %4, align 1
  br label %125

125:                                              ; preds = %124, %117
  %126 = load i1, ptr %4, align 1
  %127 = xor i1 %126, true
  %128 = xor i1 %127, true
  %129 = xor i1 %128, true
  %130 = zext i1 %129 to i32
  %131 = sext i32 %130 to i64
  %132 = icmp ne i64 %131, 0
  br i1 %132, label %133, label %139

133:                                              ; preds = %125
  %134 = load ptr, ptr %22, align 8
  %135 = icmp ne ptr %134, null
  br i1 %135, label %137, label %136

136:                                              ; preds = %133
  store i32 12, ptr %21, align 4
  store i32 9, ptr %25, align 4
  br label %138

137:                                              ; preds = %133
  store i32 2, ptr %25, align 4
  br label %138

138:                                              ; preds = %137, %136
  br label %148

139:                                              ; preds = %125
  %140 = load i32, ptr %18, align 4
  %141 = load i32, ptr %16, align 4
  %142 = icmp eq i32 %140, %141
  br i1 %142, label %146, label %143

143:                                              ; preds = %139
  %144 = load i32, ptr %16, align 4
  %145 = icmp eq i32 %144, -1
  br label %146

146:                                              ; preds = %143, %139
  %147 = phi i1 [ true, %139 ], [ %145, %143 ]
  call void @llvm.assume(i1 %147)
  br label %148

148:                                              ; preds = %146, %138, %88, %49
  %149 = load i32, ptr %25, align 4
  %150 = icmp ne i32 %149, 0
  %151 = xor i1 %150, true
  %152 = xor i1 %151, true
  %153 = zext i1 %152 to i32
  %154 = sext i32 %153 to i64
  %155 = icmp ne i64 %154, 0
  br i1 %155, label %156, label %162

156:                                              ; preds = %148
  %157 = load i32, ptr %25, align 4
  %158 = load i32, ptr %18, align 4
  %159 = load ptr, ptr %22, align 8
  %160 = load i32, ptr %21, align 4
  %161 = load ptr, ptr %20, align 8
  call void @zend_wrong_parameter_error(i32 noundef %157, i32 noundef %158, ptr noundef %159, i32 noundef %160, ptr noundef %161)
  br label %169

162:                                              ; preds = %148
  br label %163

163:                                              ; preds = %162
  %164 = load ptr, ptr getelementptr inbounds (%struct._php_basic_globals, ptr @basic_globals, i32 0, i32 10), align 8
  %165 = icmp ne ptr %164, null
  br i1 %165, label %167, label %166

166:                                              ; preds = %163
  br label %169

167:                                              ; preds = %163
  %168 = load ptr, ptr getelementptr inbounds (%struct._php_basic_globals, ptr @basic_globals, i32 0, i32 10), align 8
  call void @zend_llist_del_element(ptr noundef %168, ptr noundef %13, ptr noundef @user_tick_function_compare)
  br label %169

169:                                              ; preds = %167, %166, %156
  ret void
}