; Function Attrs: nounwind uwtable
define hidden void @zif_unregister_tick_function(ptr noundef %0, ptr nocapture readnone %1) #0 {
  %3 = alloca %struct._user_tick_function_entry, align 8
  %4 = alloca ptr, align 8
  %5 = getelementptr inbounds i8, ptr %0, i64 44
  %6 = load i32, ptr %5, align 4
  store ptr null, ptr %4, align 8
  %cond = icmp eq i32 %6, 1
  br i1 %cond, label %8, label %7

7:                                                ; preds = %2
  tail call void @zend_wrong_parameters_count_error(i32 noundef 1, i32 noundef 1) #18
  br label %13

8:                                                ; preds = %2
  %9 = getelementptr inbounds i8, ptr %0, i64 80
  %10 = getelementptr inbounds i8, ptr %3, i64 64
  %11 = call i32 @zend_fcall_info_init(ptr noundef nonnull %9, i32 noundef 0, ptr noundef nonnull %3, ptr noundef nonnull %10, ptr noundef null, ptr noundef nonnull %4) #18
  %.not47.not = icmp eq i32 %11, 0
  br i1 %.not47.not, label %15, label %.critedge

.critedge:                                        ; preds = %8
  %12 = load ptr, ptr %4, align 8
  %.not48 = icmp eq ptr %12, null
  %. = select i1 %.not48, i32 12, i32 0
  %.51 = select i1 %.not48, i32 9, i32 2
  br label %13

13:                                               ; preds = %7, %.critedge
  %14 = phi ptr [ %12, %.critedge ], [ null, %7 ]
  %.044.ph = phi ptr [ %9, %.critedge ], [ null, %7 ]
  %.043.ph = phi i32 [ %., %.critedge ], [ 0, %7 ]
  %.042.ph = phi i32 [ 1, %.critedge ], [ 0, %7 ]
  %.0.ph = phi i32 [ %.51, %.critedge ], [ 1, %7 ]
  call void @zend_wrong_parameter_error(i32 noundef %.0.ph, i32 noundef %.042.ph, ptr noundef %14, i32 noundef %.043.ph, ptr noundef %.044.ph) #18
  br label %18

15:                                               ; preds = %8
  call void @zend_release_fcall_info_cache(ptr noundef nonnull %10) #18
  %16 = load ptr, ptr getelementptr inbounds (%struct._php_basic_globals, ptr @basic_globals, i64 0, i32 10), align 8
  %.not50 = icmp eq ptr %16, null
  br i1 %.not50, label %18, label %17

17:                                               ; preds = %15
  call void @zend_llist_del_element(ptr noundef nonnull %16, ptr noundef nonnull %3, ptr noundef nonnull @user_tick_function_compare) #18
  br label %18

18:                                               ; preds = %15, %17, %13
  ret void
}